target datalayout = "e-m:e-p270:32:32-p271:32:32-p272:64:64-i64:64-i128:128-f80:128-n8:16:32:64-S128"
target triple = "x86_64-pc-linux-gnu"

%"class.std::vector.0" = type { %"struct.std::_Vector_base.1" }
%"struct.std::_Vector_base.1" = type { %"struct.std::_Vector_base<float, std::allocator<float>>::_Vector_impl" }
%"struct.std::_Vector_base<float, std::allocator<float>>::_Vector_impl" = type { %"struct.std::_Vector_base<float, std::allocator<float>>::_Vector_impl_data" }
%"struct.std::_Vector_base<float, std::allocator<float>>::_Vector_impl_data" = type { ptr, ptr, ptr }
%"struct.faiss::Index" = type <{ ptr, i32, [4 x i8], i64, i8, i8, [2 x i8], i32, float, [4 x i8] }>
%"struct.faiss::Index2Layer" = type { %"struct.faiss::IndexFlatCodes", %"struct.faiss::Level1Quantizer", %"struct.faiss::ProductQuantizer", i64, i64 }
%"struct.faiss::IndexFlatCodes" = type { %"struct.faiss::Index.base", i64, %"class.std::vector" }
%"struct.faiss::Index.base" = type <{ ptr, i32, [4 x i8], i64, i8, i8, [2 x i8], i32, float }>
%"class.std::vector" = type { %"struct.std::_Vector_base" }
%"struct.std::_Vector_base" = type { %"struct.std::_Vector_base<unsigned char, std::allocator<unsigned char>>::_Vector_impl" }
%"struct.std::_Vector_base<unsigned char, std::allocator<unsigned char>>::_Vector_impl" = type { %"struct.std::_Vector_base<unsigned char, std::allocator<unsigned char>>::_Vector_impl_data" }
%"struct.std::_Vector_base<unsigned char, std::allocator<unsigned char>>::_Vector_impl_data" = type { ptr, ptr, ptr }
%"struct.faiss::Level1Quantizer" = type { ptr, i64, i8, i8, [6 x i8], %"struct.faiss::ClusteringParameters", ptr }
%"struct.faiss::ClusteringParameters" = type <{ i32, i32, i8, i8, i8, i8, i8, [3 x i8], i32, i32, i32, [4 x i8], i64, i8, i8, [6 x i8] }>
%"struct.faiss::ProductQuantizer" = type { %"struct.faiss::Quantizer", i64, i64, i64, i64, i8, i32, %"struct.faiss::ClusteringParameters", ptr, %"class.std::vector.0", %"class.std::vector.0", %"class.std::vector.0", %"class.std::vector.0" }
%"struct.faiss::Quantizer" = type { ptr, i64, i64 }

; Function Attrs: mustprogress uwtable
define void @_ZN5faiss11Index2LayerC2EPNS_5IndexEmiiNS_10MetricTypeE(ptr noundef nonnull align 8 dereferenceable(384) %0, ptr noundef %1, i64 noundef %2, i32 noundef %3, i32 noundef %4, i32 noundef %5) unnamed_addr #1 align 2 personality ptr @__gxx_personality_v0 {
  %7 = alloca ptr, align 8
  %8 = alloca ptr, align 8
  %9 = alloca i64, align 8
  %10 = alloca i32, align 4
  %11 = alloca i32, align 4
  %12 = alloca i32, align 4
  %13 = alloca ptr, align 8
  %14 = alloca i32, align 4
  %15 = alloca i32, align 4
  %16 = alloca i32, align 4
  store ptr %0, ptr %7, align 8, !tbaa !4
  store ptr %1, ptr %8, align 8, !tbaa !63
  store i64 %2, ptr %9, align 8, !tbaa !9
  store i32 %3, ptr %10, align 4, !tbaa !56
  store i32 %4, ptr %11, align 4, !tbaa !56
  store i32 %5, ptr %12, align 4, !tbaa !64
  %17 = load ptr, ptr %7, align 8
  %18 = load ptr, ptr %8, align 8, !tbaa !63
  %19 = getelementptr inbounds nuw %"struct.faiss::Index", ptr %18, i32 0, i32 1
  %20 = load i32, ptr %19, align 8, !tbaa !21
  %21 = sext i32 %20 to i64
  %22 = load i32, ptr %12, align 4, !tbaa !64
  call void @_ZN5faiss14IndexFlatCodesC2EmlNS_10MetricTypeE(ptr noundef nonnull align 8 dereferenceable(72) %17, i64 noundef 0, i64 noundef %21, i32 noundef %22)
  store ptr getelementptr inbounds inrange(-16, 192) ({ [26 x ptr] }, ptr @_ZTVN5faiss11Index2LayerE, i32 0, i32 0, i32 2), ptr %17, align 8, !tbaa !44
  %23 = getelementptr inbounds nuw %"struct.faiss::Index2Layer", ptr %17, i32 0, i32 1
  %24 = load ptr, ptr %8, align 8, !tbaa !63
  %25 = load i64, ptr %9, align 8, !tbaa !9
  invoke void @_ZN5faiss15Level1QuantizerC1EPNS_5IndexEm(ptr noundef nonnull align 8 dereferenceable(80) %23, ptr noundef %24, i64 noundef %25)
          to label %26 unwind label %42

26:                                               ; preds = %6
  %27 = getelementptr inbounds nuw %"struct.faiss::Index2Layer", ptr %17, i32 0, i32 2
  %28 = load ptr, ptr %8, align 8, !tbaa !63
  %29 = getelementptr inbounds nuw %"struct.faiss::Index", ptr %28, i32 0, i32 1
  %30 = load i32, ptr %29, align 8, !tbaa !21
  %31 = sext i32 %30 to i64
  %32 = load i32, ptr %10, align 4, !tbaa !56
  %33 = sext i32 %32 to i64
  %34 = load i32, ptr %11, align 4, !tbaa !56
  %35 = sext i32 %34 to i64
  invoke void @_ZN5faiss16ProductQuantizerC1Emmm(ptr noundef nonnull align 8 dereferenceable(216) %27, i64 noundef %31, i64 noundef %33, i64 noundef %35)
          to label %36 unwind label %46

36:                                               ; preds = %26
  %37 = getelementptr inbounds nuw %"struct.faiss::Index", ptr %17, i32 0, i32 5
  store i8 0, ptr %37, align 1, !tbaa !50
  call void @llvm.lifetime.start.p0(i64 4, ptr %15) #16
  store i32 0, ptr %15, align 4, !tbaa !56
  br label %38

38:                                               ; preds = %62, %36
  %39 = load i32, ptr %15, align 4, !tbaa !56
  %40 = icmp slt i32 %39, 7
  br i1 %40, label %50, label %41

41:                                               ; preds = %38
  store i32 2, ptr %16, align 4
  br label %65

42:                                               ; preds = %6
  %43 = landingpad { ptr, i32 }
          cleanup
  %44 = extractvalue { ptr, i32 } %43, 0
  store ptr %44, ptr %13, align 8
  %45 = extractvalue { ptr, i32 } %43, 1
  store i32 %45, ptr %14, align 4
  br label %77

46:                                               ; preds = %26
  %47 = landingpad { ptr, i32 }
          cleanup
  %48 = extractvalue { ptr, i32 } %47, 0
  store ptr %48, ptr %13, align 8
  %49 = extractvalue { ptr, i32 } %47, 1
  store i32 %49, ptr %14, align 4
  call void @_ZN5faiss15Level1QuantizerD1Ev(ptr noundef nonnull align 8 dereferenceable(80) %23) #16
  br label %77

50:                                               ; preds = %38
  %51 = load i32, ptr %15, align 4, !tbaa !56
  %52 = mul nsw i32 8, %51
  %53 = zext i32 %52 to i64
  %54 = shl i64 1, %53
  %55 = load i64, ptr %9, align 8, !tbaa !9
  %56 = icmp uge i64 %54, %55
  br i1 %56, label %57, label %61

57:                                               ; preds = %50
  %58 = load i32, ptr %15, align 4, !tbaa !56
  %59 = sext i32 %58 to i64
  %60 = getelementptr inbounds nuw %"struct.faiss::Index2Layer", ptr %17, i32 0, i32 3
  store i64 %59, ptr %60, align 8, !tbaa !60
  store i32 2, ptr %16, align 4
  br label %65

61:                                               ; preds = %50
  br label %62

62:                                               ; preds = %61
  %63 = load i32, ptr %15, align 4, !tbaa !56
  %64 = add nsw i32 %63, 1
  store i32 %64, ptr %15, align 4, !tbaa !56
  br label %38, !llvm.loop !65

65:                                               ; preds = %57, %41
  call void @llvm.lifetime.end.p0(i64 4, ptr %15) #16
  br label %66

66:                                               ; preds = %65
  %67 = getelementptr inbounds nuw %"struct.faiss::Index2Layer", ptr %17, i32 0, i32 2
  %68 = getelementptr inbounds nuw %"struct.faiss::Quantizer", ptr %67, i32 0, i32 2
  %69 = load i64, ptr %68, align 8, !tbaa !66
  %70 = getelementptr inbounds nuw %"struct.faiss::Index2Layer", ptr %17, i32 0, i32 4
  store i64 %69, ptr %70, align 8, !tbaa !61
  %71 = getelementptr inbounds nuw %"struct.faiss::Index2Layer", ptr %17, i32 0, i32 3
  %72 = load i64, ptr %71, align 8, !tbaa !60
  %73 = getelementptr inbounds nuw %"struct.faiss::Index2Layer", ptr %17, i32 0, i32 4
  %74 = load i64, ptr %73, align 8, !tbaa !61
  %75 = add i64 %72, %74
  %76 = getelementptr inbounds nuw %"struct.faiss::IndexFlatCodes", ptr %17, i32 0, i32 1
  store i64 %75, ptr %76, align 8, !tbaa !57
  ret void

77:                                               ; preds = %46, %42
  call void @_ZN5faiss14IndexFlatCodesD2Ev(ptr noundef nonnull align 8 dereferenceable(72) %17) #16
  br label %78

78:                                               ; preds = %77
  %79 = load ptr, ptr %13, align 8
  %80 = load i32, ptr %14, align 4
  %81 = insertvalue { ptr, i32 } poison, ptr %79, 0
  %82 = insertvalue { ptr, i32 } %81, i32 %80, 1
  resume { ptr, i32 } %82
}