; Function Attrs: mustprogress uwtable
define void @_ZN5faiss11Index2LayerC2EPNS_5IndexEmiiNS_10MetricTypeE(ptr noundef nonnull align 8 dereferenceable(384) %0, ptr noundef %1, i64 noundef %2, i32 noundef %3, i32 noundef %4, i32 noundef %5) unnamed_addr #1 align 2 personality ptr @__gxx_personality_v0 {
  %7 = getelementptr inbounds nuw i8, ptr %1, i64 8
  %8 = load i32, ptr %7, align 8, !tbaa !16
  %9 = sext i32 %8 to i64
  tail call void @_ZN5faiss14IndexFlatCodesC2EmlNS_10MetricTypeE(ptr noundef nonnull align 8 dereferenceable(72) %0, i64 noundef 0, i64 noundef %9, i32 noundef %5)
  store ptr getelementptr inbounds nuw inrange(-16, 192) (i8, ptr @_ZTVN5faiss11Index2LayerE, i64 16), ptr %0, align 8, !tbaa !41
  %10 = getelementptr inbounds nuw i8, ptr %0, i64 72
  invoke void @_ZN5faiss15Level1QuantizerC1EPNS_5IndexEm(ptr noundef nonnull align 8 dereferenceable(80) %10, ptr noundef nonnull %1, i64 noundef %2)
          to label %11 unwind label %19

11:                                               ; preds = %6
  %12 = getelementptr inbounds nuw i8, ptr %0, i64 152
  %13 = load i32, ptr %7, align 8, !tbaa !16
  %14 = sext i32 %13 to i64
  %15 = sext i32 %3 to i64
  %16 = sext i32 %4 to i64
  invoke void @_ZN5faiss16ProductQuantizerC1Emmm(ptr noundef nonnull align 8 dereferenceable(216) %12, i64 noundef %14, i64 noundef %15, i64 noundef %16)
          to label %17 unwind label %21

17:                                               ; preds = %11
  %18 = getelementptr inbounds nuw i8, ptr %0, i64 25
  store i8 0, ptr %18, align 1, !tbaa !48
  br label %23

19:                                               ; preds = %6
  %20 = landingpad { ptr, i32 }
          cleanup
  br label %36

21:                                               ; preds = %11
  %22 = landingpad { ptr, i32 }
          cleanup
  tail call void @_ZN5faiss15Level1QuantizerD1Ev(ptr noundef nonnull align 8 dereferenceable(80) %10) #16
  br label %36

23:                                               ; preds = %17, %29
  %indvars.iv = phi i64 [ 0, %17 ], [ %indvars.iv.next, %29 ]
  %24 = shl nuw nsw i64 %indvars.iv, 3
  %25 = shl nuw nsw i64 1, %24
  %.not = icmp ult i64 %25, %2
  br i1 %.not, label %29, label %26

26:                                               ; preds = %23
  %27 = and i64 %indvars.iv, 4294967295
  %28 = getelementptr inbounds nuw i8, ptr %0, i64 368
  store i64 %27, ptr %28, align 8, !tbaa !59
  br label %.loopexit

29:                                               ; preds = %23
  %indvars.iv.next = add nuw nsw i64 %indvars.iv, 1
  %exitcond.not = icmp eq i64 %indvars.iv.next, 7
  br i1 %exitcond.not, label %.loopexit.loopexit, label %23, !llvm.loop !64

.loopexit.loopexit:                               ; preds = %29
  %.phi.trans.insert = getelementptr inbounds nuw i8, ptr %0, i64 368
  %.pre = load i64, ptr %.phi.trans.insert, align 8, !tbaa !59
  br label %.loopexit

.loopexit:                                        ; preds = %.loopexit.loopexit, %26
  %30 = phi i64 [ %.pre, %.loopexit.loopexit ], [ %27, %26 ]
  %31 = getelementptr inbounds nuw i8, ptr %0, i64 168
  %32 = load i64, ptr %31, align 8, !tbaa !65
  %33 = getelementptr inbounds nuw i8, ptr %0, i64 376
  store i64 %32, ptr %33, align 8, !tbaa !60
  %34 = add i64 %30, %32
  %35 = getelementptr inbounds nuw i8, ptr %0, i64 40
  store i64 %34, ptr %35, align 8, !tbaa !56
  ret void

36:                                               ; preds = %21, %19
  %.pn = phi { ptr, i32 } [ %22, %21 ], [ %20, %19 ]
  tail call void @_ZN5faiss14IndexFlatCodesD2Ev(ptr noundef nonnull align 8 dereferenceable(72) %0) #16
  resume { ptr, i32 } %.pn
}